; Function Attrs: mustprogress uwtable
define void @_ZN5osgeo4proj11coordinates18CoordinateMetadata6createERKN7dropbox6oxygen2nnISt10shared_ptrINS0_3crs3CRSEEEE(ptr dead_on_unwind noalias writable sret(%"class.dropbox::oxygen::nn.34") align 8 %0, ptr noundef nonnull align 8 dereferenceable(16) %1) local_unnamed_addr #0 align 2 personality ptr @__gxx_personality_v0 {
  %3 = alloca %"struct.osgeo::proj::util::BaseObjectNNPtr", align 8
  %4 = load ptr, ptr %1, align 8
  %5 = tail call noundef zeroext i1 @_ZNK5osgeo4proj3crs3CRS9isDynamicEb(ptr noundef nonnull align 8 dereferenceable(64) %4, i1 noundef zeroext false)
  br i1 %5, label %6, label %11

6:                                                ; preds = %2
  %7 = tail call ptr @__cxa_allocate_exception(i64 40) #16
  invoke void @_ZN5osgeo4proj4util9ExceptionC1EPKc(ptr noundef nonnull align 8 dereferenceable(40) %7, ptr noundef nonnull @.str)
          to label %8 unwind label %9

8:                                                ; preds = %6
  tail call void @__cxa_throw(ptr nonnull %7, ptr nonnull @_ZTIN5osgeo4proj4util9ExceptionE, ptr nonnull @_ZN5osgeo4proj4util9ExceptionD1Ev) #18
  unreachable

9:                                                ; preds = %6
  %10 = landingpad { ptr, i32 }
          cleanup
  tail call void @__cxa_free_exception(ptr %7) #16
  br label %27

11:                                               ; preds = %2
  tail call void @_ZN5osgeo4proj11coordinates18CoordinateMetadata14nn_make_sharedIS2_JRKN7dropbox6oxygen2nnISt10shared_ptrINS0_3crs3CRSEEEEEEENS6_IS7_IT_EEEDpOT0_(ptr dead_on_unwind writable sret(%"class.dropbox::oxygen::nn.34") align 8 %0, ptr noundef nonnull align 8 dereferenceable(16) %1)
  %12 = load ptr, ptr %0, align 8
  store ptr %12, ptr %3, align 8
  %13 = getelementptr inbounds i8, ptr %3, i64 8
  %14 = getelementptr inbounds i8, ptr %0, i64 8
  %15 = load ptr, ptr %14, align 8
  store ptr %15, ptr %13, align 8
  %.not.i.i.i.i.i = icmp eq ptr %15, null
  br i1 %.not.i.i.i.i.i, label %_ZN5osgeo4proj4util15BaseObjectNNPtrC2INS0_11coordinates18CoordinateMetadataEEERKN7dropbox6oxygen2nnISt10shared_ptrIT_EEE.exit, label %16

16:                                               ; preds = %11
  %17 = getelementptr inbounds i8, ptr %15, i64 8
  %18 = load i8, ptr @__libc_single_threaded, align 1
  %.not.i.i.i.i.i.i = icmp eq i8 %18, 0
  br i1 %.not.i.i.i.i.i.i, label %22, label %19

19:                                               ; preds = %16
  %20 = load i32, ptr %17, align 4
  %21 = add nsw i32 %20, 1
  store i32 %21, ptr %17, align 4
  br label %_ZN5osgeo4proj4util15BaseObjectNNPtrC2INS0_11coordinates18CoordinateMetadataEEERKN7dropbox6oxygen2nnISt10shared_ptrIT_EEE.exit

22:                                               ; preds = %16
  %23 = atomicrmw volatile add ptr %17, i32 1 acq_rel, align 4
  br label %_ZN5osgeo4proj4util15BaseObjectNNPtrC2INS0_11coordinates18CoordinateMetadataEEERKN7dropbox6oxygen2nnISt10shared_ptrIT_EEE.exit

_ZN5osgeo4proj4util15BaseObjectNNPtrC2INS0_11coordinates18CoordinateMetadataEEERKN7dropbox6oxygen2nnISt10shared_ptrIT_EEE.exit: ; preds = %22, %19, %11
  invoke void @_ZN5osgeo4proj4util10BaseObject10assignSelfERKNS1_15BaseObjectNNPtrE(ptr noundef nonnull align 8 dereferenceable(16) %12, ptr noundef nonnull align 8 dereferenceable(16) %3)
          to label %24 unwind label %25

24:                                               ; preds = %_ZN5osgeo4proj4util15BaseObjectNNPtrC2INS0_11coordinates18CoordinateMetadataEEERKN7dropbox6oxygen2nnISt10shared_ptrIT_EEE.exit
  call void @_ZN5osgeo4proj4util15BaseObjectNNPtrD1Ev(ptr noundef nonnull align 8 dereferenceable(16) %3) #16
  ret void

25:                                               ; preds = %_ZN5osgeo4proj4util15BaseObjectNNPtrC2INS0_11coordinates18CoordinateMetadataEEERKN7dropbox6oxygen2nnISt10shared_ptrIT_EEE.exit
  %26 = landingpad { ptr, i32 }
          cleanup
  call void @_ZN5osgeo4proj4util15BaseObjectNNPtrD1Ev(ptr noundef nonnull align 8 dereferenceable(16) %3) #16
  call void @_ZN7dropbox6oxygen2nnISt10shared_ptrIN5osgeo4proj11coordinates18CoordinateMetadataEEED2Ev(ptr noundef nonnull align 8 dereferenceable(16) %0) #16
  br label %27

27:                                               ; preds = %25, %9
  %.pn7 = phi { ptr, i32 } [ %10, %9 ], [ %26, %25 ]
  resume { ptr, i32 } %.pn7
}